Certificate:
    Data:
        Version: 3 (0x2)
        Serial Number:
            d7:41:00:85:d5:51:a8:e0
    Signature Algorithm: sha256WithRSAEncryption
        Issuer: C=JP, ST=Tokyo, O=National Institute of Informatics, OU=National Institute of Informatics, CN=gakunincloud.nii.ac.jp/emailAddress=cld-ocs-support@nii.ac.jp
        Validity
            Not Before: Feb 19 05:50:36 2019 GMT
            Not After : Feb 16 05:50:36 2029 GMT
        Subject: C=JP, ST=Tokyo, O=National Institute of Informatics, OU=National Institute of Informatics, CN=gakunincloud.nii.ac.jp/emailAddress=cld-ocs-support@nii.ac.jp
        Subject Public Key Info:
            Public Key Algorithm: rsaEncryption
                Public-Key: (2048 bit)
                Modulus:
                    00:c8:2c:57:af:57:8f:ec:ef:20:1a:08:ea:22:1a:
                    5a:af:50:c9:9a:aa:55:bf:94:67:9c:af:f9:59:75:
                    e8:c8:1c:5d:ec:13:d3:b1:89:1e:b9:2f:80:ec:98:
                    e3:48:ad:bb:ff:b6:f0:73:11:42:c7:43:9a:71:e5:
                    0b:45:90:6f:24:85:df:0c:02:13:b5:ad:1d:5e:1d:
                    44:2f:4b:94:b3:94:0d:24:1d:c4:9c:3d:56:e3:24:
                    36:47:f5:4d:7e:90:cf:a8:f0:ed:0b:4a:e5:11:d2:
                    99:49:a1:be:04:49:12:02:13:63:8d:aa:0d:93:86:
                    b4:33:d0:2a:27:f1:59:6e:ee:21:4b:94:b0:0f:b0:
                    bc:b6:47:f5:bb:02:09:a0:46:c7:78:da:f2:3a:ec:
                    a8:b9:f8:82:73:d8:93:25:41:1f:11:06:98:99:f5:
                    88:4d:5f:02:7a:f1:49:b4:ee:b1:1d:a7:29:50:79:
                    21:cb:76:f1:5a:fa:d9:b2:4a:b2:fa:0a:2c:83:0e:
                    cb:de:f3:ad:53:b7:4c:71:55:6c:1d:43:e4:f1:e0:
                    97:1d:66:7e:72:ab:fd:a0:49:57:46:e7:da:f4:5d:
                    02:78:28:3a:33:e8:7a:85:32:ee:56:95:c0:6e:5d:
                    44:0b:94:56:73:2a:ea:53:43:6b:13:60:30:9b:f0:
                    e4:df
                Exponent: 65537 (0x10001)
        X509v3 extensions:
            X509v3 Subject Key Identifier: 
                73:E3:75:62:6F:59:21:AF:26:2E:70:34:62:BE:2C:EC:C2:8A:A1:E0
            X509v3 Authority Key Identifier: 
                keyid:73:E3:75:62:6F:59:21:AF:26:2E:70:34:62:BE:2C:EC:C2:8A:A1:E0

            X509v3 Basic Constraints: 
                CA:TRUE
    Signature Algorithm: sha256WithRSAEncryption
         6e:98:bb:87:b9:e5:66:6e:57:57:ec:17:87:93:22:0d:44:b1:
         60:c1:9b:bf:ef:03:8c:36:75:f2:b3:15:d3:71:18:79:96:7c:
         8d:f1:d6:b8:1e:77:9f:cf:a3:ee:51:63:21:a3:92:6d:18:2c:
         64:c3:0b:b6:37:65:19:fb:ad:f8:33:12:7d:a2:d7:d6:08:13:
         ac:9d:d8:5a:e1:ff:1e:a5:4f:d4:76:c5:ed:27:cc:4f:de:4e:
         83:da:62:47:cb:53:cd:5e:fe:48:63:38:77:10:45:60:74:39:
         e6:bc:35:eb:46:eb:2f:27:32:57:71:02:9f:23:46:c9:79:4c:
         a2:af:42:c2:3c:41:eb:07:68:60:f4:63:4f:de:77:95:80:dd:
         05:fd:87:9f:d4:cc:fe:35:67:fd:26:69:c8:52:0f:e2:f7:2f:
         c5:05:ab:d3:2c:57:74:0d:6e:bf:dd:ed:ea:59:ad:70:65:b6:
         35:16:5c:8c:57:ca:32:a4:8d:34:55:2f:6a:e8:fc:d9:bf:50:
         20:f1:50:7a:71:41:b7:60:a7:31:f0:30:ba:5e:72:07:fb:ea:
         a7:69:db:d8:63:97:a1:b3:ff:c0:01:78:d7:ec:97:50:f3:fd:
         b0:c8:8e:fa:86:61:6b:cf:0f:d6:9c:22:96:66:17:83:c1:93:
         79:a1:da:b3
-----BEGIN CERTIFICATE-----
MIIEVTCCAz2gAwIBAgIJANdBAIXVUajgMA0GCSqGSIb3DQEBCwUAMIHAMQswCQYD
VQQGEwJKUDEOMAwGA1UECAwFVG9reW8xKjAoBgNVBAoMIU5hdGlvbmFsIEluc3Rp
dHV0ZSBvZiBJbmZvcm1hdGljczEqMCgGA1UECwwhTmF0aW9uYWwgSW5zdGl0dXRl
IG9mIEluZm9ybWF0aWNzMR8wHQYDVQQDDBZnYWt1bmluY2xvdWQubmlpLmFjLmpw
MSgwJgYJKoZIhvcNAQkBFhljbGQtb2NzLXN1cHBvcnRAbmlpLmFjLmpwMB4XDTE5
MDIxOTA1NTAzNloXDTI5MDIxNjA1NTAzNlowgcAxCzAJBgNVBAYTAkpQMQ4wDAYD
VQQIDAVUb2t5bzEqMCgGA1UECgwhTmF0aW9uYWwgSW5zdGl0dXRlIG9mIEluZm9y
bWF0aWNzMSowKAYDVQQLDCFOYXRpb25hbCBJbnN0aXR1dGUgb2YgSW5mb3JtYXRp
Y3MxHzAdBgNVBAMMFmdha3VuaW5jbG91ZC5uaWkuYWMuanAxKDAmBgkqhkiG9w0B
CQEWGWNsZC1vY3Mtc3VwcG9ydEBuaWkuYWMuanAwggEiMA0GCSqGSIb3DQEBAQUA
A4IBDwAwggEKAoIBAQDILFevV4/s7yAaCOoiGlqvUMmaqlW/lGecr/lZdejIHF3s
E9OxiR65L4DsmONIrbv/tvBzEULHQ5px5QtFkG8khd8MAhO1rR1eHUQvS5SzlA0k
HcScPVbjJDZH9U1+kM+o8O0LSuUR0plJob4ESRICE2ONqg2ThrQz0Con8Vlu7iFL
lLAPsLy2R/W7AgmgRsd42vI67Ki5+IJz2JMlQR8RBpiZ9YhNXwJ68Um07rEdpylQ
eSHLdvFa+tmySrL6CiyDDsve861Tt0xxVWwdQ+Tx4JcdZn5yq/2gSVdG59r0XQJ4
KDoz6HqFMu5WlcBuXUQLlFZzKupTQ2sTYDCb8OTfAgMBAAGjUDBOMB0GA1UdDgQW
BBRz43Vib1khryYucDRivizswoqh4DAfBgNVHSMEGDAWgBRz43Vib1khryYucDRi
vizswoqh4DAMBgNVHRMEBTADAQH/MA0GCSqGSIb3DQEBCwUAA4IBAQBumLuHueVm
bldX7BeHkyINRLFgwZu/7wOMNnXysxXTcRh5lnyN8da4Hnefz6PuUWMho5JtGCxk
wwu2N2UZ+634MxJ9otfWCBOsndha4f8epU/UdsXtJ8xP3k6D2mJHy1PNXv5IYzh3
EEVgdDnmvDXrRusvJzJXcQKfI0bJeUyir0LCPEHrB2hg9GNP3neVgN0F/Yef1Mz+
NWf9JmnIUg/i9y/FBavTLFd0DW6/3e3qWa1wZbY1FlyMV8oypI00VS9q6PzZv1Ag
8VB6cUG3YKcx8DC6XnIH++qnadvYY5ehs//AAXjX7JdQ8/2wyI76hmFrzw/WnCKW
ZheDwZN5odqz
-----END CERTIFICATE-----
