Certificate:
    Data:
        Version: 3 (0x2)
        Serial Number: 42 (0x2a)
    Signature Algorithm: sha256WithRSAEncryption
        Issuer: C=JP, ST=Tokyo, O=National Institute of Informatics, OU=National Institute of Informatics, CN=gakunincloud.nii.ac.jp/emailAddress=cld-ocs-support@nii.ac.jp
        Validity
            Not Before: Mar  4 02:55:55 2020 GMT
            Not After : Mar  2 02:55:55 2030 GMT
        Subject: C=JP, ST=Tokyo, L=Chiyoda, O=Localhost Dummy, OU=Portable VCC, CN=localhost/emailAddress=cld-ocs-support@nii.ac.jp
        Subject Public Key Info:
            Public Key Algorithm: rsaEncryption
                Public-Key: (2048 bit)
                Modulus:
                    00:b3:82:91:35:8b:3c:df:5b:20:6f:b9:7d:4c:8d:
                    ac:8d:4a:c9:73:d6:25:44:be:4b:ad:56:c4:97:65:
                    ea:2b:c3:c2:85:42:09:e4:d1:bc:84:15:af:6f:cc:
                    b3:77:1b:d2:a3:ff:57:ba:91:df:79:94:84:72:e5:
                    91:2f:b3:3d:d1:a4:d7:8e:fc:98:c0:b2:f8:83:93:
                    11:8c:f7:4b:e3:ef:36:f8:3b:5a:2c:f6:09:5a:2f:
                    52:4e:29:23:cb:0b:1c:46:17:84:f8:1a:38:d6:65:
                    9d:dc:f6:d2:d9:1f:8e:8d:04:ea:39:cc:83:05:a5:
                    92:f8:8a:cc:84:e6:63:56:08:52:d4:06:53:69:b0:
                    0d:f1:18:7b:64:57:ee:40:56:44:a4:ab:72:2e:10:
                    2e:ec:2a:98:7a:11:86:2f:60:58:ed:00:d1:14:c4:
                    86:c5:59:ac:2e:12:00:49:c4:b6:41:8c:a0:8a:3a:
                    cf:20:e5:3f:42:cc:0a:a8:e9:c8:f5:08:df:52:36:
                    3b:81:d0:8f:e7:e5:b5:62:a2:fe:c8:46:e2:40:42:
                    29:8e:e4:a4:be:17:c8:c1:b7:ac:97:9b:f1:85:7e:
                    8b:5c:f4:6d:3b:c4:4e:c3:95:ac:93:18:d1:c3:33:
                    83:a1:07:2c:34:61:f9:74:b0:bb:ae:eb:9a:ab:c4:
                    81:f9
                Exponent: 65537 (0x10001)
        X509v3 extensions:
            X509v3 Basic Constraints: 
                CA:FALSE
            Netscape Comment: 
                OpenSSL Generated Certificate
            X509v3 Subject Key Identifier: 
                51:50:9A:15:1E:D6:4C:C1:EF:2D:8D:9B:E9:AC:41:9E:6B:B2:F2:0A
            X509v3 Authority Key Identifier: 
                keyid:73:E3:75:62:6F:59:21:AF:26:2E:70:34:62:BE:2C:EC:C2:8A:A1:E0

            X509v3 Key Usage: 
                Digital Signature, Non Repudiation, Key Encipherment
            X509v3 Subject Alternative Name: 
                IP Address:127.0.0.1, DNS:localhost
    Signature Algorithm: sha256WithRSAEncryption
         94:11:d8:78:a1:69:41:ba:4c:b3:5c:9d:ad:8a:99:16:20:4b:
         28:90:9a:1f:7b:f7:d4:81:9a:25:42:34:f1:70:ea:dd:b8:57:
         7c:75:8c:7e:12:de:d4:19:c2:9d:bc:20:a0:67:ef:3b:5e:0c:
         c5:0d:4c:fa:63:71:55:66:2e:a2:2b:3c:07:60:85:36:5d:20:
         ef:2f:60:3c:e8:26:a6:ab:b0:1c:5f:25:20:93:03:b6:a3:d0:
         b0:8b:fe:da:df:b0:ef:c9:9a:e3:bf:7e:a4:bf:2b:64:2b:7a:
         2d:79:17:01:b6:ac:44:04:1a:3a:b1:39:5d:f3:51:64:cb:6c:
         a2:2f:3e:b3:b0:a7:6a:c9:f3:74:da:b4:1b:8f:67:e0:9f:bd:
         79:9d:06:39:15:98:5f:a9:e2:f9:8c:d2:6e:d5:a9:12:08:18:
         fe:2f:2f:19:b1:86:3a:5a:21:ad:73:56:04:3b:a6:1e:c9:b8:
         41:73:43:fa:f4:cb:6e:1e:1d:78:cc:bb:b3:4c:26:28:c0:ed:
         88:fa:75:5b:d5:e8:4f:2c:2a:9e:18:a9:50:a4:7d:4d:b4:51:
         07:59:22:05:52:26:e0:03:0d:6c:4f:c5:69:ba:3e:7d:fa:4c:
         73:7a:35:f6:36:83:28:87:ef:16:c5:6b:15:58:e8:50:fa:92:
         d8:a6:32:d2
-----BEGIN CERTIFICATE-----
MIIEgTCCA2mgAwIBAgIBKjANBgkqhkiG9w0BAQsFADCBwDELMAkGA1UEBhMCSlAx
DjAMBgNVBAgMBVRva3lvMSowKAYDVQQKDCFOYXRpb25hbCBJbnN0aXR1dGUgb2Yg
SW5mb3JtYXRpY3MxKjAoBgNVBAsMIU5hdGlvbmFsIEluc3RpdHV0ZSBvZiBJbmZv
cm1hdGljczEfMB0GA1UEAwwWZ2FrdW5pbmNsb3VkLm5paS5hYy5qcDEoMCYGCSqG
SIb3DQEJARYZY2xkLW9jcy1zdXBwb3J0QG5paS5hYy5qcDAeFw0yMDAzMDQwMjU1
NTVaFw0zMDAzMDIwMjU1NTVaMIGeMQswCQYDVQQGEwJKUDEOMAwGA1UECAwFVG9r
eW8xEDAOBgNVBAcMB0NoaXlvZGExGDAWBgNVBAoMD0xvY2FsaG9zdCBEdW1teTEV
MBMGA1UECwwMUG9ydGFibGUgVkNDMRIwEAYDVQQDDAlsb2NhbGhvc3QxKDAmBgkq
hkiG9w0BCQEWGWNsZC1vY3Mtc3VwcG9ydEBuaWkuYWMuanAwggEiMA0GCSqGSIb3
DQEBAQUAA4IBDwAwggEKAoIBAQCzgpE1izzfWyBvuX1MjayNSslz1iVEvkutVsSX
Zeorw8KFQgnk0byEFa9vzLN3G9Kj/1e6kd95lIRy5ZEvsz3RpNeO/JjAsviDkxGM
90vj7zb4O1os9glaL1JOKSPLCxxGF4T4GjjWZZ3c9tLZH46NBOo5zIMFpZL4isyE
5mNWCFLUBlNpsA3xGHtkV+5AVkSkq3IuEC7sKph6EYYvYFjtANEUxIbFWawuEgBJ
xLZBjKCKOs8g5T9CzAqo6cj1CN9SNjuB0I/n5bViov7IRuJAQimO5KS+F8jBt6yX
m/GFfotc9G07xE7DlayTGNHDM4OhByw0Yfl0sLuu65qrxIH5AgMBAAGjgaUwgaIw
CQYDVR0TBAIwADAsBglghkgBhvhCAQ0EHxYdT3BlblNTTCBHZW5lcmF0ZWQgQ2Vy
dGlmaWNhdGUwHQYDVR0OBBYEFFFQmhUe1kzB7y2Nm+msQZ5rsvIKMB8GA1UdIwQY
MBaAFHPjdWJvWSGvJi5wNGK+LOzCiqHgMAsGA1UdDwQEAwIF4DAaBgNVHREEEzAR
hwR/AAABgglsb2NhbGhvc3QwDQYJKoZIhvcNAQELBQADggEBAJQR2HihaUG6TLNc
na2KmRYgSyiQmh9799SBmiVCNPFw6t24V3x1jH4S3tQZwp28IKBn7zteDMUNTPpj
cVVmLqIrPAdghTZdIO8vYDzoJqarsBxfJSCTA7aj0LCL/trfsO/JmuO/fqS/K2Qr
ei15FwG2rEQEGjqxOV3zUWTLbKIvPrOwp2rJ83TatBuPZ+CfvXmdBjkVmF+p4vmM
0m7VqRIIGP4vLxmxhjpaIa1zVgQ7ph7JuEFzQ/r0y24eHXjMu7NMJijA7Yj6dVvV
6E8sKp4YqVCkfU20UQdZIgVSJuADDWxPxWm6Pn36THN6NfY2gyiH7xbFaxVY6FD6
ktimMtI=
-----END CERTIFICATE-----
